target datalayout = "e-m:e-p270:32:32-p271:32:32-p272:64:64-i64:64-i128:128-f80:128-n8:16:32:64-S128"
target triple = "x86_64-pc-linux-gnu"

%struct.eio_obj = type { i32, ptr, ptr, i8 }
%struct.server_io_info = type { ptr, i32, i8, %struct.io_hdr_t, ptr, i32, i8, i32, i32, ptr, ptr, i32, i8 }
%struct.io_hdr_t = type { i32, i16, i16, i32 }
%struct.client_io_t = type { i32, i32, i8, i32, i32, i32, ptr, i8, %union.pthread_cond_t, %union.pthread_mutex_t, i32, ptr, ptr, ptr, %union.pthread_mutex_t, ptr, i32, ptr, ptr, ptr, ptr, ptr, ptr, i32, i32, ptr }
%union.pthread_cond_t = type { %struct.__pthread_cond_s }
%struct.__pthread_cond_s = type { %union.__atomic_wide_counter, %union.__atomic_wide_counter, [2 x i32], [2 x i32], i32, i32, [2 x i32] }
%union.__atomic_wide_counter = type { i64 }
%union.pthread_mutex_t = type { %struct.__pthread_mutex_s }
%struct.__pthread_mutex_s = type { i32, i32, i32, i32, i32, i16, i16, %struct.__pthread_internal_list }
%struct.__pthread_internal_list = type { ptr, ptr }

@.str.4 = private unnamed_addr constant [29 x i8] c"%s: pthread_mutex_lock(): %m\00", align 1
@.str.11 = private unnamed_addr constant [31 x i8] c"%s: pthread_mutex_unlock(): %m\00", align 1
@__func__.client_io_handler_abort = private unnamed_addr constant [24 x i8] c"client_io_handler_abort\00", align 1

; Function Attrs: nounwind uwtable
define dso_local void @client_io_handler_abort(ptr noundef %0) #0 {
  %2 = alloca ptr, align 8
  %3 = alloca ptr, align 8
  %4 = alloca i32, align 4
  %5 = alloca i32, align 4
  %6 = alloca i32, align 4
  %7 = alloca i32, align 4
  store ptr %0, ptr %2, align 8
  call void @llvm.lifetime.start.p0(i64 8, ptr %3) #9
  call void @llvm.lifetime.start.p0(i64 4, ptr %4) #9
  %8 = load ptr, ptr %2, align 8
  %9 = icmp eq ptr %8, null
  br i1 %9, label %10, label %11

10:                                               ; preds = %1
  store i32 1, ptr %5, align 4
  br label %101

11:                                               ; preds = %1
  br label %12

12:                                               ; preds = %11
  call void @llvm.lifetime.start.p0(i64 4, ptr %6) #9
  %13 = load ptr, ptr %2, align 8
  %14 = getelementptr inbounds nuw %struct.client_io_t, ptr %13, i32 0, i32 14
  %15 = call i32 @pthread_mutex_lock(ptr noundef %14) #9
  store i32 %15, ptr %6, align 4
  %16 = load i32, ptr %6, align 4
  %17 = icmp ne i32 %16, 0
  br i1 %17, label %18, label %21

18:                                               ; preds = %12
  %19 = load i32, ptr %6, align 4
  %20 = call ptr @__errno_location() #10
  store i32 %19, ptr %20, align 4
  call void (ptr, ...) @fatal_abort(ptr noundef @.str.4, ptr noundef @__func__.client_io_handler_abort) #11
  unreachable

21:                                               ; preds = %12
  call void @llvm.lifetime.end.p0(i64 4, ptr %6) #9
  br label %22

22:                                               ; preds = %21
  br label %23

23:                                               ; preds = %22
  store i32 0, ptr %4, align 4
  br label %24

24:                                               ; preds = %85, %23
  %25 = load i32, ptr %4, align 4
  %26 = load ptr, ptr %2, align 8
  %27 = getelementptr inbounds nuw %struct.client_io_t, ptr %26, i32 0, i32 1
  %28 = load i32, ptr %27, align 4
  %29 = icmp slt i32 %25, %28
  br i1 %29, label %30, label %88

30:                                               ; preds = %24
  %31 = load ptr, ptr %2, align 8
  %32 = getelementptr inbounds nuw %struct.client_io_t, ptr %31, i32 0, i32 15
  %33 = load ptr, ptr %32, align 8
  %34 = load i32, ptr %4, align 4
  %35 = sext i32 %34 to i64
  %36 = call i32 @slurm_bit_test(ptr noundef %33, i64 noundef %35)
  %37 = icmp ne i32 %36, 0
  br i1 %37, label %50, label %38

38:                                               ; preds = %30
  %39 = load ptr, ptr %2, align 8
  %40 = getelementptr inbounds nuw %struct.client_io_t, ptr %39, i32 0, i32 15
  %41 = load ptr, ptr %40, align 8
  %42 = load i32, ptr %4, align 4
  %43 = sext i32 %42 to i64
  call void @bit_set(ptr noundef %41, i64 noundef %43)
  %44 = load ptr, ptr %2, align 8
  %45 = getelementptr inbounds nuw %struct.client_io_t, ptr %44, i32 0, i32 15
  %46 = load ptr, ptr %45, align 8
  %47 = call i32 @bit_set_count(ptr noundef %46)
  %48 = load ptr, ptr %2, align 8
  %49 = getelementptr inbounds nuw %struct.client_io_t, ptr %48, i32 0, i32 16
  store i32 %47, ptr %49, align 8
  br label %84

50:                                               ; preds = %30
  %51 = load ptr, ptr %2, align 8
  %52 = getelementptr inbounds nuw %struct.client_io_t, ptr %51, i32 0, i32 17
  %53 = load ptr, ptr %52, align 8
  %54 = load i32, ptr %4, align 4
  %55 = sext i32 %54 to i64
  %56 = getelementptr inbounds ptr, ptr %53, i64 %55
  %57 = load ptr, ptr %56, align 8
  %58 = icmp ne ptr %57, null
  br i1 %58, label %59, label %83

59:                                               ; preds = %50
  %60 = load ptr, ptr %2, align 8
  %61 = getelementptr inbounds nuw %struct.client_io_t, ptr %60, i32 0, i32 17
  %62 = load ptr, ptr %61, align 8
  %63 = load i32, ptr %4, align 4
  %64 = sext i32 %63 to i64
  %65 = getelementptr inbounds ptr, ptr %62, i64 %64
  %66 = load ptr, ptr %65, align 8
  %67 = getelementptr inbounds nuw %struct.eio_obj, ptr %66, i32 0, i32 1
  %68 = load ptr, ptr %67, align 8
  store ptr %68, ptr %3, align 8
  %69 = load ptr, ptr %3, align 8
  %70 = getelementptr inbounds nuw %struct.server_io_info, ptr %69, i32 0, i32 7
  store i32 0, ptr %70, align 8
  %71 = load ptr, ptr %3, align 8
  %72 = getelementptr inbounds nuw %struct.server_io_info, ptr %71, i32 0, i32 8
  store i32 0, ptr %72, align 4
  %73 = load ptr, ptr %3, align 8
  %74 = getelementptr inbounds nuw %struct.server_io_info, ptr %73, i32 0, i32 2
  store i8 0, ptr %74, align 4
  %75 = load ptr, ptr %2, align 8
  %76 = getelementptr inbounds nuw %struct.client_io_t, ptr %75, i32 0, i32 17
  %77 = load ptr, ptr %76, align 8
  %78 = load i32, ptr %4, align 4
  %79 = sext i32 %78 to i64
  %80 = getelementptr inbounds ptr, ptr %77, i64 %79
  %81 = load ptr, ptr %80, align 8
  %82 = getelementptr inbounds nuw %struct.eio_obj, ptr %81, i32 0, i32 3
  store i8 1, ptr %82, align 8
  br label %83

83:                                               ; preds = %59, %50
  br label %84

84:                                               ; preds = %83, %38
  br label %85

85:                                               ; preds = %84
  %86 = load i32, ptr %4, align 4
  %87 = add nsw i32 %86, 1
  store i32 %87, ptr %4, align 4
  br label %24, !llvm.loop !18

88:                                               ; preds = %24
  br label %89

89:                                               ; preds = %88
  call void @llvm.lifetime.start.p0(i64 4, ptr %7) #9
  %90 = load ptr, ptr %2, align 8
  %91 = getelementptr inbounds nuw %struct.client_io_t, ptr %90, i32 0, i32 14
  %92 = call i32 @pthread_mutex_unlock(ptr noundef %91) #9
  store i32 %92, ptr %7, align 4
  %93 = load i32, ptr %7, align 4
  %94 = icmp ne i32 %93, 0
  br i1 %94, label %95, label %98

95:                                               ; preds = %89
  %96 = load i32, ptr %7, align 4
  %97 = call ptr @__errno_location() #10
  store i32 %96, ptr %97, align 4
  call void (ptr, ...) @fatal_abort(ptr noundef @.str.11, ptr noundef @__func__.client_io_handler_abort) #11
  unreachable

98:                                               ; preds = %89
  call void @llvm.lifetime.end.p0(i64 4, ptr %7) #9
  br label %99

99:                                               ; preds = %98
  br label %100

100:                                              ; preds = %99
  store i32 0, ptr %5, align 4
  br label %101

101:                                              ; preds = %100, %10
  call void @llvm.lifetime.end.p0(i64 4, ptr %4) #9
  call void @llvm.lifetime.end.p0(i64 8, ptr %3) #9
  %102 = load i32, ptr %5, align 4
  switch i32 %102, label %104 [
    i32 0, label %103
    i32 1, label %103
  ]

103:                                              ; preds = %101, %101
  ret void

104:                                              ; preds = %101
  unreachable
}