; Function Attrs: nounwind uwtable
define dso_local void @client_io_handler_abort(ptr noundef %0) local_unnamed_addr #0 {
  %2 = icmp eq ptr %0, null
  br i1 %2, label %42, label %3

3:                                                ; preds = %1
  %4 = getelementptr inbounds nuw i8, ptr %0, i64 160
  %5 = tail call i32 @pthread_mutex_lock(ptr noundef nonnull %4) #10
  %.not = icmp eq i32 %5, 0
  br i1 %.not, label %.preheader, label %12

.preheader:                                       ; preds = %3
  %6 = getelementptr inbounds nuw i8, ptr %0, i64 4
  %7 = load i32, ptr %6, align 4
  %8 = icmp sgt i32 %7, 0
  br i1 %8, label %.lr.ph, label %._crit_edge

.lr.ph:                                           ; preds = %.preheader
  %9 = getelementptr inbounds nuw i8, ptr %0, i64 200
  %10 = getelementptr inbounds nuw i8, ptr %0, i64 216
  %11 = getelementptr inbounds nuw i8, ptr %0, i64 208
  br label %14

12:                                               ; preds = %3
  %13 = tail call ptr @__errno_location() #11
  store i32 %5, ptr %13, align 4
  tail call void (ptr, ...) @fatal_abort(ptr noundef nonnull @.str.4, ptr noundef nonnull @__func__.client_io_handler_abort) #12
  unreachable

14:                                               ; preds = %.lr.ph, %35
  %indvars.iv = phi i64 [ 0, %.lr.ph ], [ %indvars.iv.next, %35 ]
  %15 = load ptr, ptr %9, align 8
  %16 = tail call i32 @slurm_bit_test(ptr noundef %15, i64 noundef %indvars.iv) #10
  %.not29 = icmp eq i32 %16, 0
  br i1 %.not29, label %17, label %21

17:                                               ; preds = %14
  %18 = load ptr, ptr %9, align 8
  tail call void @bit_set(ptr noundef %18, i64 noundef %indvars.iv) #10
  %19 = load ptr, ptr %9, align 8
  %20 = tail call i32 @bit_set_count(ptr noundef %19) #10
  store i32 %20, ptr %11, align 8
  br label %35

21:                                               ; preds = %14
  %22 = load ptr, ptr %10, align 8
  %23 = getelementptr inbounds nuw ptr, ptr %22, i64 %indvars.iv
  %24 = load ptr, ptr %23, align 8
  %.not30 = icmp eq ptr %24, null
  br i1 %.not30, label %35, label %25

25:                                               ; preds = %21
  %26 = getelementptr inbounds nuw i8, ptr %24, i64 8
  %27 = load ptr, ptr %26, align 8
  %28 = getelementptr inbounds nuw i8, ptr %27, i64 48
  store i32 0, ptr %28, align 8
  %29 = getelementptr inbounds nuw i8, ptr %27, i64 52
  store i32 0, ptr %29, align 4
  %30 = getelementptr inbounds nuw i8, ptr %27, i64 12
  store i8 0, ptr %30, align 4
  %31 = load ptr, ptr %10, align 8
  %32 = getelementptr inbounds nuw ptr, ptr %31, i64 %indvars.iv
  %33 = load ptr, ptr %32, align 8
  %34 = getelementptr inbounds nuw i8, ptr %33, i64 24
  store i8 1, ptr %34, align 8
  br label %35

35:                                               ; preds = %17, %25, %21
  %indvars.iv.next = add nuw nsw i64 %indvars.iv, 1
  %36 = load i32, ptr %6, align 4
  %37 = sext i32 %36 to i64
  %38 = icmp slt i64 %indvars.iv.next, %37
  br i1 %38, label %14, label %._crit_edge, !llvm.loop !20

._crit_edge:                                      ; preds = %35, %.preheader
  %39 = tail call i32 @pthread_mutex_unlock(ptr noundef nonnull %4) #10
  %.not28 = icmp eq i32 %39, 0
  br i1 %.not28, label %42, label %40

40:                                               ; preds = %._crit_edge
  %41 = tail call ptr @__errno_location() #11
  store i32 %39, ptr %41, align 4
  tail call void (ptr, ...) @fatal_abort(ptr noundef nonnull @.str.11, ptr noundef nonnull @__func__.client_io_handler_abort) #12
  unreachable

42:                                               ; preds = %._crit_edge, %1
  ret void
}